target datalayout = "e-m:e-p270:32:32-p271:32:32-p272:64:64-i64:64-f80:128-n8:16:32:64-S128"
target triple = "x86_64-pc-linux-gnu"

@.str = private unnamed_addr constant [3 x i8] c"%d\00", align 1
@.str.1 = private unnamed_addr constant [9 x i8] c"%f %f %f\00", align 1
@.str.2 = private unnamed_addr constant [40 x i8] c"(%.0f,%.0f,%.0f)-(%.0f,%.0f,%.0f)=%.2f\0A\00", align 1

; Function Attrs: noinline nounwind uwtable
define dso_local i32 @main() #0 {
  %1 = alloca i32, align 4
  %2 = alloca i32, align 4
  %3 = alloca i32, align 4
  %4 = alloca i32, align 4
  %5 = alloca i32, align 4
  %6 = alloca i32, align 4
  %7 = alloca i32, align 4
  %8 = alloca [10 x float], align 16
  %9 = alloca [10 x float], align 16
  %10 = alloca [10 x float], align 16
  %11 = alloca [10 x [10 x float]], align 16
  %12 = alloca [10 x [10 x i32]], align 16
  store i32 0, i32* %1, align 4
  %13 = call i32 (i8*, ...) @__isoc99_scanf(i8* getelementptr inbounds ([3 x i8], [3 x i8]* @.str, i64 0, i64 0), i32* %2)
  store i32 0, i32* %3, align 4
  br label %14

14:                                               ; preds = %29, %0
  %15 = load i32, i32* %3, align 4
  %16 = load i32, i32* %2, align 4
  %17 = icmp slt i32 %15, %16
  br i1 %17, label %18, label %32

18:                                               ; preds = %14
  %19 = load i32, i32* %3, align 4
  %20 = sext i32 %19 to i64
  %21 = getelementptr inbounds [10 x float], [10 x float]* %8, i64 0, i64 %20
  %22 = load i32, i32* %3, align 4
  %23 = sext i32 %22 to i64
  %24 = getelementptr inbounds [10 x float], [10 x float]* %9, i64 0, i64 %23
  %25 = load i32, i32* %3, align 4
  %26 = sext i32 %25 to i64
  %27 = getelementptr inbounds [10 x float], [10 x float]* %10, i64 0, i64 %26
  %28 = call i32 (i8*, ...) @__isoc99_scanf(i8* getelementptr inbounds ([9 x i8], [9 x i8]* @.str.1, i64 0, i64 0), float* %21, float* %24, float* %27)
  br label %29

29:                                               ; preds = %18
  %30 = load i32, i32* %3, align 4
  %31 = add nsw i32 %30, 1
  store i32 %31, i32* %3, align 4
  br label %14

32:                                               ; preds = %14
  store i32 0, i32* %3, align 4
  br label %33

33:                                               ; preds = %124, %32
  %34 = load i32, i32* %3, align 4
  %35 = load i32, i32* %2, align 4
  %36 = sub nsw i32 %35, 1
  %37 = icmp slt i32 %34, %36
  br i1 %37, label %38, label %127

38:                                               ; preds = %33
  %39 = load i32, i32* %3, align 4
  %40 = add nsw i32 %39, 1
  store i32 %40, i32* %5, align 4
  br label %41

41:                                               ; preds = %120, %38
  %42 = load i32, i32* %5, align 4
  %43 = load i32, i32* %2, align 4
  %44 = icmp slt i32 %42, %43
  br i1 %44, label %45, label %123

45:                                               ; preds = %41
  %46 = load i32, i32* %3, align 4
  %47 = sext i32 %46 to i64
  %48 = getelementptr inbounds [10 x float], [10 x float]* %8, i64 0, i64 %47
  %49 = load float, float* %48, align 4
  %50 = load i32, i32* %5, align 4
  %51 = sext i32 %50 to i64
  %52 = getelementptr inbounds [10 x float], [10 x float]* %8, i64 0, i64 %51
  %53 = load float, float* %52, align 4
  %54 = fsub float %49, %53
  %55 = load i32, i32* %3, align 4
  %56 = sext i32 %55 to i64
  %57 = getelementptr inbounds [10 x float], [10 x float]* %8, i64 0, i64 %56
  %58 = load float, float* %57, align 4
  %59 = load i32, i32* %5, align 4
  %60 = sext i32 %59 to i64
  %61 = getelementptr inbounds [10 x float], [10 x float]* %8, i64 0, i64 %60
  %62 = load float, float* %61, align 4
  %63 = fsub float %58, %62
  %64 = fmul float %54, %63
  %65 = load i32, i32* %3, align 4
  %66 = sext i32 %65 to i64
  %67 = getelementptr inbounds [10 x float], [10 x float]* %9, i64 0, i64 %66
  %68 = load float, float* %67, align 4
  %69 = load i32, i32* %5, align 4
  %70 = sext i32 %69 to i64
  %71 = getelementptr inbounds [10 x float], [10 x float]* %9, i64 0, i64 %70
  %72 = load float, float* %71, align 4
  %73 = fsub float %68, %72
  %74 = load i32, i32* %3, align 4
  %75 = sext i32 %74 to i64
  %76 = getelementptr inbounds [10 x float], [10 x float]* %9, i64 0, i64 %75
  %77 = load float, float* %76, align 4
  %78 = load i32, i32* %5, align 4
  %79 = sext i32 %78 to i64
  %80 = getelementptr inbounds [10 x float], [10 x float]* %9, i64 0, i64 %79
  %81 = load float, float* %80, align 4
  %82 = fsub float %77, %81
  %83 = fmul float %73, %82
  %84 = fadd float %64, %83
  %85 = load i32, i32* %3, align 4
  %86 = sext i32 %85 to i64
  %87 = getelementptr inbounds [10 x float], [10 x float]* %10, i64 0, i64 %86
  %88 = load float, float* %87, align 4
  %89 = load i32, i32* %5, align 4
  %90 = sext i32 %89 to i64
  %91 = getelementptr inbounds [10 x float], [10 x float]* %10, i64 0, i64 %90
  %92 = load float, float* %91, align 4
  %93 = fsub float %88, %92
  %94 = load i32, i32* %3, align 4
  %95 = sext i32 %94 to i64
  %96 = getelementptr inbounds [10 x float], [10 x float]* %10, i64 0, i64 %95
  %97 = load float, float* %96, align 4
  %98 = load i32, i32* %5, align 4
  %99 = sext i32 %98 to i64
  %100 = getelementptr inbounds [10 x float], [10 x float]* %10, i64 0, i64 %99
  %101 = load float, float* %100, align 4
  %102 = fsub float %97, %101
  %103 = fmul float %93, %102
  %104 = fadd float %84, %103
  %105 = fpext float %104 to double
  %106 = call double @sqrt(double %105) #3
  %107 = fptrunc double %106 to float
  %108 = load i32, i32* %3, align 4
  %109 = sext i32 %108 to i64
  %110 = getelementptr inbounds [10 x [10 x float]], [10 x [10 x float]]* %11, i64 0, i64 %109
  %111 = load i32, i32* %5, align 4
  %112 = sext i32 %111 to i64
  %113 = getelementptr inbounds [10 x float], [10 x float]* %110, i64 0, i64 %112
  store float %107, float* %113, align 4
  %114 = load i32, i32* %3, align 4
  %115 = sext i32 %114 to i64
  %116 = getelementptr inbounds [10 x [10 x i32]], [10 x [10 x i32]]* %12, i64 0, i64 %115
  %117 = load i32, i32* %5, align 4
  %118 = sext i32 %117 to i64
  %119 = getelementptr inbounds [10 x i32], [10 x i32]* %116, i64 0, i64 %118
  store i32 1, i32* %119, align 4
  br label %120

120:                                              ; preds = %45
  %121 = load i32, i32* %5, align 4
  %122 = add nsw i32 %121, 1
  store i32 %122, i32* %5, align 4
  br label %41

123:                                              ; preds = %41
  br label %124

124:                                              ; preds = %123
  %125 = load i32, i32* %3, align 4
  %126 = add nsw i32 %125, 1
  store i32 %126, i32* %3, align 4
  br label %33

127:                                              ; preds = %33
  store i32 1, i32* %4, align 4
  br label %128

128:                                              ; preds = %271, %127
  %129 = load i32, i32* %4, align 4
  %130 = icmp slt i32 %129, 300
  br i1 %130, label %131, label %274

131:                                              ; preds = %128
  store i32 0, i32* %3, align 4
  br label %132

132:                                              ; preds = %267, %131
  %133 = load i32, i32* %3, align 4
  %134 = load i32, i32* %2, align 4
  %135 = sub nsw i32 %134, 1
  %136 = icmp slt i32 %133, %135
  br i1 %136, label %137, label %270

137:                                              ; preds = %132
  %138 = load i32, i32* %3, align 4
  %139 = add nsw i32 %138, 1
  store i32 %139, i32* %5, align 4
  br label %140

140:                                              ; preds = %258, %137
  %141 = load i32, i32* %5, align 4
  %142 = load i32, i32* %2, align 4
  %143 = icmp slt i32 %141, %142
  br i1 %143, label %144, label %261

144:                                              ; preds = %140
  %145 = load i32, i32* %3, align 4
  %146 = sext i32 %145 to i64
  %147 = getelementptr inbounds [10 x [10 x i32]], [10 x [10 x i32]]* %12, i64 0, i64 %146
  %148 = load i32, i32* %5, align 4
  %149 = sext i32 %148 to i64
  %150 = getelementptr inbounds [10 x i32], [10 x i32]* %147, i64 0, i64 %149
  %151 = load i32, i32* %150, align 4
  %152 = icmp eq i32 %151, 0
  br i1 %152, label %153, label %154

153:                                              ; preds = %144
  br label %258

154:                                              ; preds = %144
  store i32 0, i32* %6, align 4
  br label %155

155:                                              ; preds = %203, %154
  %156 = load i32, i32* %6, align 4
  %157 = load i32, i32* %2, align 4
  %158 = sub nsw i32 %157, 1
  %159 = icmp slt i32 %156, %158
  br i1 %159, label %160, label %206

160:                                              ; preds = %155
  %161 = load i32, i32* %6, align 4
  %162 = add nsw i32 %161, 1
  store i32 %162, i32* %7, align 4
  br label %163

163:                                              ; preds = %194, %160
  %164 = load i32, i32* %7, align 4
  %165 = load i32, i32* %2, align 4
  %166 = icmp slt i32 %164, %165
  br i1 %166, label %167, label %197

167:                                              ; preds = %163
  %168 = load i32, i32* %3, align 4
  %169 = sext i32 %168 to i64
  %170 = getelementptr inbounds [10 x [10 x float]], [10 x [10 x float]]* %11, i64 0, i64 %169
  %171 = load i32, i32* %5, align 4
  %172 = sext i32 %171 to i64
  %173 = getelementptr inbounds [10 x float], [10 x float]* %170, i64 0, i64 %172
  %174 = load float, float* %173, align 4
  %175 = load i32, i32* %6, align 4
  %176 = sext i32 %175 to i64
  %177 = getelementptr inbounds [10 x [10 x float]], [10 x [10 x float]]* %11, i64 0, i64 %176
  %178 = load i32, i32* %7, align 4
  %179 = sext i32 %178 to i64
  %180 = getelementptr inbounds [10 x float], [10 x float]* %177, i64 0, i64 %179
  %181 = load float, float* %180, align 4
  %182 = fcmp olt float %174, %181
  br i1 %182, label %183, label %193

183:                                              ; preds = %167
  %184 = load i32, i32* %6, align 4
  %185 = sext i32 %184 to i64
  %186 = getelementptr inbounds [10 x [10 x i32]], [10 x [10 x i32]]* %12, i64 0, i64 %185
  %187 = load i32, i32* %7, align 4
  %188 = sext i32 %187 to i64
  %189 = getelementptr inbounds [10 x i32], [10 x i32]* %186, i64 0, i64 %188
  %190 = load i32, i32* %189, align 4
  %191 = icmp ne i32 %190, 0
  br i1 %191, label %192, label %193

192:                                              ; preds = %183
  br label %197

193:                                              ; preds = %183, %167
  br label %194

194:                                              ; preds = %193
  %195 = load i32, i32* %7, align 4
  %196 = add nsw i32 %195, 1
  store i32 %196, i32* %7, align 4
  br label %163

197:                                              ; preds = %192, %163
  %198 = load i32, i32* %7, align 4
  %199 = load i32, i32* %2, align 4
  %200 = icmp slt i32 %198, %199
  br i1 %200, label %201, label %202

201:                                              ; preds = %197
  br label %206

202:                                              ; preds = %197
  br label %203

203:                                              ; preds = %202
  %204 = load i32, i32* %6, align 4
  %205 = add nsw i32 %204, 1
  store i32 %205, i32* %6, align 4
  br label %155

206:                                              ; preds = %201, %155
  %207 = load i32, i32* %6, align 4
  %208 = load i32, i32* %2, align 4
  %209 = sub nsw i32 %208, 1
  %210 = icmp eq i32 %207, %209
  br i1 %210, label %211, label %257

211:                                              ; preds = %206
  %212 = load i32, i32* %3, align 4
  %213 = sext i32 %212 to i64
  %214 = getelementptr inbounds [10 x float], [10 x float]* %8, i64 0, i64 %213
  %215 = load float, float* %214, align 4
  %216 = fpext float %215 to double
  %217 = load i32, i32* %3, align 4
  %218 = sext i32 %217 to i64
  %219 = getelementptr inbounds [10 x float], [10 x float]* %9, i64 0, i64 %218
  %220 = load float, float* %219, align 4
  %221 = fpext float %220 to double
  %222 = load i32, i32* %3, align 4
  %223 = sext i32 %222 to i64
  %224 = getelementptr inbounds [10 x float], [10 x float]* %10, i64 0, i64 %223
  %225 = load float, float* %224, align 4
  %226 = fpext float %225 to double
  %227 = load i32, i32* %5, align 4
  %228 = sext i32 %227 to i64
  %229 = getelementptr inbounds [10 x float], [10 x float]* %8, i64 0, i64 %228
  %230 = load float, float* %229, align 4
  %231 = fpext float %230 to double
  %232 = load i32, i32* %5, align 4
  %233 = sext i32 %232 to i64
  %234 = getelementptr inbounds [10 x float], [10 x float]* %9, i64 0, i64 %233
  %235 = load float, float* %234, align 4
  %236 = fpext float %235 to double
  %237 = load i32, i32* %5, align 4
  %238 = sext i32 %237 to i64
  %239 = getelementptr inbounds [10 x float], [10 x float]* %10, i64 0, i64 %238
  %240 = load float, float* %239, align 4
  %241 = fpext float %240 to double
  %242 = load i32, i32* %3, align 4
  %243 = sext i32 %242 to i64
  %244 = getelementptr inbounds [10 x [10 x float]], [10 x [10 x float]]* %11, i64 0, i64 %243
  %245 = load i32, i32* %5, align 4
  %246 = sext i32 %245 to i64
  %247 = getelementptr inbounds [10 x float], [10 x float]* %244, i64 0, i64 %246
  %248 = load float, float* %247, align 4
  %249 = fpext float %248 to double
  %250 = call i32 (i8*, ...) @printf(i8* getelementptr inbounds ([40 x i8], [40 x i8]* @.str.2, i64 0, i64 0), double %216, double %221, double %226, double %231, double %236, double %241, double %249)
  %251 = load i32, i32* %3, align 4
  %252 = sext i32 %251 to i64
  %253 = getelementptr inbounds [10 x [10 x i32]], [10 x [10 x i32]]* %12, i64 0, i64 %252
  %254 = load i32, i32* %5, align 4
  %255 = sext i32 %254 to i64
  %256 = getelementptr inbounds [10 x i32], [10 x i32]* %253, i64 0, i64 %255
  store i32 0, i32* %256, align 4
  br label %261

257:                                              ; preds = %206
  br label %258

258:                                              ; preds = %257, %153
  %259 = load i32, i32* %5, align 4
  %260 = add nsw i32 %259, 1
  store i32 %260, i32* %5, align 4
  br label %140

261:                                              ; preds = %211, %140
  %262 = load i32, i32* %5, align 4
  %263 = load i32, i32* %2, align 4
  %264 = icmp slt i32 %262, %263
  br i1 %264, label %265, label %266

265:                                              ; preds = %261
  br label %270

266:                                              ; preds = %261
  br label %267

267:                                              ; preds = %266
  %268 = load i32, i32* %3, align 4
  %269 = add nsw i32 %268, 1
  store i32 %269, i32* %3, align 4
  br label %132

270:                                              ; preds = %265, %132
  br label %271

271:                                              ; preds = %270
  %272 = load i32, i32* %4, align 4
  %273 = add nsw i32 %272, 1
  store i32 %273, i32* %4, align 4
  br label %128

274:                                              ; preds = %128
  ret i32 0
}